target datalayout = "e-m:e-p270:32:32-p271:32:32-p272:64:64-i64:64-i128:128-f80:128-n8:16:32:64-S128"
target triple = "x86_64-pc-linux-gnu"

%"class.Imf_3_4::KeyCode" = type { i32, i32, i32, i32, i32, i32, i32 }

@.str = private unnamed_addr constant [68 x i8] c"Invalid key code film manufacturer code (must be between 0 and 99).\00", align 1
@_ZTIN7Iex_3_46ArgExcE = external constant ptr
@.str.1 = private unnamed_addr constant [55 x i8] c"Invalid key code film type (must be between 0 and 99).\00", align 1
@.str.2 = private unnamed_addr constant [56 x i8] c"Invalid key code prefix (must be between 0 and 999999).\00", align 1
@.str.3 = private unnamed_addr constant [53 x i8] c"Invalid key code count (must be between 0 and 9999).\00", align 1
@.str.4 = private unnamed_addr constant [65 x i8] c"Invalid key code perforation offset (must be between 0 and 119).\00", align 1
@.str.5 = private unnamed_addr constant [78 x i8] c"Invalid key code number of perforations per frame (must be between 1 and 15).\00", align 1
@.str.6 = private unnamed_addr constant [80 x i8] c"Invalid key code number of perforations per count (must be between 20 and 120).\00", align 1

; Function Attrs: mustprogress uwtable
define void @_ZN7Imf_3_47KeyCode16setPerfsPerCountEi(ptr noundef nonnull align 4 dereferenceable(28) %0, i32 noundef %1) #0 align 2 personality ptr @__gxx_personality_v0 {
  %3 = alloca ptr, align 8
  %4 = alloca i32, align 4
  %5 = alloca ptr, align 8
  %6 = alloca i32, align 4
  store ptr %0, ptr %3, align 8, !tbaa !3
  store i32 %1, ptr %4, align 4, !tbaa !8
  %7 = load ptr, ptr %3, align 8
  %8 = load i32, ptr %4, align 4, !tbaa !8
  %9 = icmp slt i32 %8, 20
  br i1 %9, label %13, label %10

10:                                               ; preds = %2
  %11 = load i32, ptr %4, align 4, !tbaa !8
  %12 = icmp sgt i32 %11, 120
  br i1 %12, label %13, label %20

13:                                               ; preds = %10, %2
  %14 = call ptr @__cxa_allocate_exception(i64 72) #4
  invoke void @_ZN7Iex_3_46ArgExcC1EPKc(ptr noundef nonnull align 8 dereferenceable(72) %14, ptr noundef @.str.6)
          to label %15 unwind label %16

15:                                               ; preds = %13
  call void @__cxa_throw(ptr %14, ptr @_ZTIN7Iex_3_46ArgExcE, ptr @_ZN7Iex_3_46ArgExcD1Ev) #5
  unreachable

16:                                               ; preds = %13
  %17 = landingpad { ptr, i32 }
          cleanup
  %18 = extractvalue { ptr, i32 } %17, 0
  store ptr %18, ptr %5, align 8
  %19 = extractvalue { ptr, i32 } %17, 1
  store i32 %19, ptr %6, align 4
  call void @__cxa_free_exception(ptr %14) #4
  br label %23

20:                                               ; preds = %10
  %21 = load i32, ptr %4, align 4, !tbaa !8
  %22 = getelementptr inbounds nuw %"class.Imf_3_4::KeyCode", ptr %7, i32 0, i32 6
  store i32 %21, ptr %22, align 4, !tbaa !17
  ret void

23:                                               ; preds = %16
  %24 = load ptr, ptr %5, align 8
  %25 = load i32, ptr %6, align 4
  %26 = insertvalue { ptr, i32 } poison, ptr %24, 0
  %27 = insertvalue { ptr, i32 } %26, i32 %25, 1
  resume { ptr, i32 } %27
}

; Function Attrs: mustprogress uwtable
define void @_ZN7Imf_3_47KeyCode16setPerfsPerFrameEi(ptr noundef nonnull align 4 dereferenceable(28) %0, i32 noundef %1) #0 align 2 personality ptr @__gxx_personality_v0 {
  %3 = alloca ptr, align 8
  %4 = alloca i32, align 4
  %5 = alloca ptr, align 8
  %6 = alloca i32, align 4
  store ptr %0, ptr %3, align 8, !tbaa !3
  store i32 %1, ptr %4, align 4, !tbaa !8
  %7 = load ptr, ptr %3, align 8
  %8 = load i32, ptr %4, align 4, !tbaa !8
  %9 = icmp slt i32 %8, 1
  br i1 %9, label %13, label %10

10:                                               ; preds = %2
  %11 = load i32, ptr %4, align 4, !tbaa !8
  %12 = icmp sgt i32 %11, 15
  br i1 %12, label %13, label %20

13:                                               ; preds = %10, %2
  %14 = call ptr @__cxa_allocate_exception(i64 72) #4
  invoke void @_ZN7Iex_3_46ArgExcC1EPKc(ptr noundef nonnull align 8 dereferenceable(72) %14, ptr noundef @.str.5)
          to label %15 unwind label %16

15:                                               ; preds = %13
  call void @__cxa_throw(ptr %14, ptr @_ZTIN7Iex_3_46ArgExcE, ptr @_ZN7Iex_3_46ArgExcD1Ev) #5
  unreachable

16:                                               ; preds = %13
  %17 = landingpad { ptr, i32 }
          cleanup
  %18 = extractvalue { ptr, i32 } %17, 0
  store ptr %18, ptr %5, align 8
  %19 = extractvalue { ptr, i32 } %17, 1
  store i32 %19, ptr %6, align 4
  call void @__cxa_free_exception(ptr %14) #4
  br label %23

20:                                               ; preds = %10
  %21 = load i32, ptr %4, align 4, !tbaa !8
  %22 = getelementptr inbounds nuw %"class.Imf_3_4::KeyCode", ptr %7, i32 0, i32 5
  store i32 %21, ptr %22, align 4, !tbaa !16
  ret void

23:                                               ; preds = %16
  %24 = load ptr, ptr %5, align 8
  %25 = load i32, ptr %6, align 4
  %26 = insertvalue { ptr, i32 } poison, ptr %24, 0
  %27 = insertvalue { ptr, i32 } %26, i32 %25, 1
  resume { ptr, i32 } %27
}

; Function Attrs: mustprogress uwtable
define void @_ZN7Imf_3_47KeyCode13setPerfOffsetEi(ptr noundef nonnull align 4 dereferenceable(28) %0, i32 noundef %1) #0 align 2 personality ptr @__gxx_personality_v0 {
  %3 = alloca ptr, align 8
  %4 = alloca i32, align 4
  %5 = alloca ptr, align 8
  %6 = alloca i32, align 4
  store ptr %0, ptr %3, align 8, !tbaa !3
  store i32 %1, ptr %4, align 4, !tbaa !8
  %7 = load ptr, ptr %3, align 8
  %8 = load i32, ptr %4, align 4, !tbaa !8
  %9 = icmp slt i32 %8, 0
  br i1 %9, label %13, label %10

10:                                               ; preds = %2
  %11 = load i32, ptr %4, align 4, !tbaa !8
  %12 = icmp sgt i32 %11, 119
  br i1 %12, label %13, label %20

13:                                               ; preds = %10, %2
  %14 = call ptr @__cxa_allocate_exception(i64 72) #4
  invoke void @_ZN7Iex_3_46ArgExcC1EPKc(ptr noundef nonnull align 8 dereferenceable(72) %14, ptr noundef @.str.4)
          to label %15 unwind label %16

15:                                               ; preds = %13
  call void @__cxa_throw(ptr %14, ptr @_ZTIN7Iex_3_46ArgExcE, ptr @_ZN7Iex_3_46ArgExcD1Ev) #5
  unreachable

16:                                               ; preds = %13
  %17 = landingpad { ptr, i32 }
          cleanup
  %18 = extractvalue { ptr, i32 } %17, 0
  store ptr %18, ptr %5, align 8
  %19 = extractvalue { ptr, i32 } %17, 1
  store i32 %19, ptr %6, align 4
  call void @__cxa_free_exception(ptr %14) #4
  br label %23

20:                                               ; preds = %10
  %21 = load i32, ptr %4, align 4, !tbaa !8
  %22 = getelementptr inbounds nuw %"class.Imf_3_4::KeyCode", ptr %7, i32 0, i32 4
  store i32 %21, ptr %22, align 4, !tbaa !15
  ret void

23:                                               ; preds = %16
  %24 = load ptr, ptr %5, align 8
  %25 = load i32, ptr %6, align 4
  %26 = insertvalue { ptr, i32 } poison, ptr %24, 0
  %27 = insertvalue { ptr, i32 } %26, i32 %25, 1
  resume { ptr, i32 } %27
}

; Function Attrs: mustprogress uwtable
define void @_ZN7Imf_3_47KeyCode8setCountEi(ptr noundef nonnull align 4 dereferenceable(28) %0, i32 noundef %1) #0 align 2 personality ptr @__gxx_personality_v0 {
  %3 = alloca ptr, align 8
  %4 = alloca i32, align 4
  %5 = alloca ptr, align 8
  %6 = alloca i32, align 4
  store ptr %0, ptr %3, align 8, !tbaa !3
  store i32 %1, ptr %4, align 4, !tbaa !8
  %7 = load ptr, ptr %3, align 8
  %8 = load i32, ptr %4, align 4, !tbaa !8
  %9 = icmp slt i32 %8, 0
  br i1 %9, label %13, label %10

10:                                               ; preds = %2
  %11 = load i32, ptr %4, align 4, !tbaa !8
  %12 = icmp sgt i32 %11, 9999
  br i1 %12, label %13, label %20

13:                                               ; preds = %10, %2
  %14 = call ptr @__cxa_allocate_exception(i64 72) #4
  invoke void @_ZN7Iex_3_46ArgExcC1EPKc(ptr noundef nonnull align 8 dereferenceable(72) %14, ptr noundef @.str.3)
          to label %15 unwind label %16

15:                                               ; preds = %13
  call void @__cxa_throw(ptr %14, ptr @_ZTIN7Iex_3_46ArgExcE, ptr @_ZN7Iex_3_46ArgExcD1Ev) #5
  unreachable

16:                                               ; preds = %13
  %17 = landingpad { ptr, i32 }
          cleanup
  %18 = extractvalue { ptr, i32 } %17, 0
  store ptr %18, ptr %5, align 8
  %19 = extractvalue { ptr, i32 } %17, 1
  store i32 %19, ptr %6, align 4
  call void @__cxa_free_exception(ptr %14) #4
  br label %23

20:                                               ; preds = %10
  %21 = load i32, ptr %4, align 4, !tbaa !8
  %22 = getelementptr inbounds nuw %"class.Imf_3_4::KeyCode", ptr %7, i32 0, i32 3
  store i32 %21, ptr %22, align 4, !tbaa !14
  ret void

23:                                               ; preds = %16
  %24 = load ptr, ptr %5, align 8
  %25 = load i32, ptr %6, align 4
  %26 = insertvalue { ptr, i32 } poison, ptr %24, 0
  %27 = insertvalue { ptr, i32 } %26, i32 %25, 1
  resume { ptr, i32 } %27
}

; Function Attrs: mustprogress uwtable
define void @_ZN7Imf_3_47KeyCode9setPrefixEi(ptr noundef nonnull align 4 dereferenceable(28) %0, i32 noundef %1) #0 align 2 personality ptr @__gxx_personality_v0 {
  %3 = alloca ptr, align 8
  %4 = alloca i32, align 4
  %5 = alloca ptr, align 8
  %6 = alloca i32, align 4
  store ptr %0, ptr %3, align 8, !tbaa !3
  store i32 %1, ptr %4, align 4, !tbaa !8
  %7 = load ptr, ptr %3, align 8
  %8 = load i32, ptr %4, align 4, !tbaa !8
  %9 = icmp slt i32 %8, 0
  br i1 %9, label %13, label %10

10:                                               ; preds = %2
  %11 = load i32, ptr %4, align 4, !tbaa !8
  %12 = icmp sgt i32 %11, 999999
  br i1 %12, label %13, label %20

13:                                               ; preds = %10, %2
  %14 = call ptr @__cxa_allocate_exception(i64 72) #4
  invoke void @_ZN7Iex_3_46ArgExcC1EPKc(ptr noundef nonnull align 8 dereferenceable(72) %14, ptr noundef @.str.2)
          to label %15 unwind label %16

15:                                               ; preds = %13
  call void @__cxa_throw(ptr %14, ptr @_ZTIN7Iex_3_46ArgExcE, ptr @_ZN7Iex_3_46ArgExcD1Ev) #5
  unreachable

16:                                               ; preds = %13
  %17 = landingpad { ptr, i32 }
          cleanup
  %18 = extractvalue { ptr, i32 } %17, 0
  store ptr %18, ptr %5, align 8
  %19 = extractvalue { ptr, i32 } %17, 1
  store i32 %19, ptr %6, align 4
  call void @__cxa_free_exception(ptr %14) #4
  br label %23

20:                                               ; preds = %10
  %21 = load i32, ptr %4, align 4, !tbaa !8
  %22 = getelementptr inbounds nuw %"class.Imf_3_4::KeyCode", ptr %7, i32 0, i32 2
  store i32 %21, ptr %22, align 4, !tbaa !13
  ret void

23:                                               ; preds = %16
  %24 = load ptr, ptr %5, align 8
  %25 = load i32, ptr %6, align 4
  %26 = insertvalue { ptr, i32 } poison, ptr %24, 0
  %27 = insertvalue { ptr, i32 } %26, i32 %25, 1
  resume { ptr, i32 } %27
}

; Function Attrs: mustprogress uwtable
define void @_ZN7Imf_3_47KeyCode11setFilmTypeEi(ptr noundef nonnull align 4 dereferenceable(28) %0, i32 noundef %1) #0 align 2 personality ptr @__gxx_personality_v0 {
  %3 = alloca ptr, align 8
  %4 = alloca i32, align 4
  %5 = alloca ptr, align 8
  %6 = alloca i32, align 4
  store ptr %0, ptr %3, align 8, !tbaa !3
  store i32 %1, ptr %4, align 4, !tbaa !8
  %7 = load ptr, ptr %3, align 8
  %8 = load i32, ptr %4, align 4, !tbaa !8
  %9 = icmp slt i32 %8, 0
  br i1 %9, label %13, label %10

10:                                               ; preds = %2
  %11 = load i32, ptr %4, align 4, !tbaa !8
  %12 = icmp sgt i32 %11, 99
  br i1 %12, label %13, label %20

13:                                               ; preds = %10, %2
  %14 = call ptr @__cxa_allocate_exception(i64 72) #4
  invoke void @_ZN7Iex_3_46ArgExcC1EPKc(ptr noundef nonnull align 8 dereferenceable(72) %14, ptr noundef @.str.1)
          to label %15 unwind label %16

15:                                               ; preds = %13
  call void @__cxa_throw(ptr %14, ptr @_ZTIN7Iex_3_46ArgExcE, ptr @_ZN7Iex_3_46ArgExcD1Ev) #5
  unreachable

16:                                               ; preds = %13
  %17 = landingpad { ptr, i32 }
          cleanup
  %18 = extractvalue { ptr, i32 } %17, 0
  store ptr %18, ptr %5, align 8
  %19 = extractvalue { ptr, i32 } %17, 1
  store i32 %19, ptr %6, align 4
  call void @__cxa_free_exception(ptr %14) #4
  br label %23

20:                                               ; preds = %10
  %21 = load i32, ptr %4, align 4, !tbaa !8
  %22 = getelementptr inbounds nuw %"class.Imf_3_4::KeyCode", ptr %7, i32 0, i32 1
  store i32 %21, ptr %22, align 4, !tbaa !12
  ret void

23:                                               ; preds = %16
  %24 = load ptr, ptr %5, align 8
  %25 = load i32, ptr %6, align 4
  %26 = insertvalue { ptr, i32 } poison, ptr %24, 0
  %27 = insertvalue { ptr, i32 } %26, i32 %25, 1
  resume { ptr, i32 } %27
}

; Function Attrs: mustprogress uwtable
define void @_ZN7Imf_3_47KeyCode14setFilmMfcCodeEi(ptr noundef nonnull align 4 dereferenceable(28) %0, i32 noundef %1) #0 align 2 personality ptr @__gxx_personality_v0 {
  %3 = alloca ptr, align 8
  %4 = alloca i32, align 4
  %5 = alloca ptr, align 8
  %6 = alloca i32, align 4
  store ptr %0, ptr %3, align 8, !tbaa !3
  store i32 %1, ptr %4, align 4, !tbaa !8
  %7 = load ptr, ptr %3, align 8
  %8 = load i32, ptr %4, align 4, !tbaa !8
  %9 = icmp slt i32 %8, 0
  br i1 %9, label %13, label %10

10:                                               ; preds = %2
  %11 = load i32, ptr %4, align 4, !tbaa !8
  %12 = icmp sgt i32 %11, 99
  br i1 %12, label %13, label %20

13:                                               ; preds = %10, %2
  %14 = call ptr @__cxa_allocate_exception(i64 72) #4
  invoke void @_ZN7Iex_3_46ArgExcC1EPKc(ptr noundef nonnull align 8 dereferenceable(72) %14, ptr noundef @.str)
          to label %15 unwind label %16

15:                                               ; preds = %13
  call void @__cxa_throw(ptr %14, ptr @_ZTIN7Iex_3_46ArgExcE, ptr @_ZN7Iex_3_46ArgExcD1Ev) #5
  unreachable

16:                                               ; preds = %13
  %17 = landingpad { ptr, i32 }
          cleanup
  %18 = extractvalue { ptr, i32 } %17, 0
  store ptr %18, ptr %5, align 8
  %19 = extractvalue { ptr, i32 } %17, 1
  store i32 %19, ptr %6, align 4
  call void @__cxa_free_exception(ptr %14) #4
  br label %23

20:                                               ; preds = %10
  %21 = load i32, ptr %4, align 4, !tbaa !8
  %22 = getelementptr inbounds nuw %"class.Imf_3_4::KeyCode", ptr %7, i32 0, i32 0
  store i32 %21, ptr %22, align 4, !tbaa !10
  ret void

23:                                               ; preds = %16
  %24 = load ptr, ptr %5, align 8
  %25 = load i32, ptr %6, align 4
  %26 = insertvalue { ptr, i32 } poison, ptr %24, 0
  %27 = insertvalue { ptr, i32 } %26, i32 %25, 1
  resume { ptr, i32 } %27
}

; Function Attrs: mustprogress uwtable
define void @_ZN7Imf_3_47KeyCodeC2Eiiiiiii(ptr noundef nonnull align 4 dereferenceable(28) %0, i32 noundef %1, i32 noundef %2, i32 noundef %3, i32 noundef %4, i32 noundef %5, i32 noundef %6, i32 noundef %7) unnamed_addr #0 align 2 {
  %9 = alloca ptr, align 8
  %10 = alloca i32, align 4
  %11 = alloca i32, align 4
  %12 = alloca i32, align 4
  %13 = alloca i32, align 4
  %14 = alloca i32, align 4
  %15 = alloca i32, align 4
  %16 = alloca i32, align 4
  store ptr %0, ptr %9, align 8, !tbaa !3
  store i32 %1, ptr %10, align 4, !tbaa !8
  store i32 %2, ptr %11, align 4, !tbaa !8
  store i32 %3, ptr %12, align 4, !tbaa !8
  store i32 %4, ptr %13, align 4, !tbaa !8
  store i32 %5, ptr %14, align 4, !tbaa !8
  store i32 %6, ptr %15, align 4, !tbaa !8
  store i32 %7, ptr %16, align 4, !tbaa !8
  %17 = load ptr, ptr %9, align 8
  %18 = load i32, ptr %10, align 4, !tbaa !8
  call void @_ZN7Imf_3_47KeyCode14setFilmMfcCodeEi(ptr noundef nonnull align 4 dereferenceable(28) %17, i32 noundef %18)
  %19 = load i32, ptr %11, align 4, !tbaa !8
  call void @_ZN7Imf_3_47KeyCode11setFilmTypeEi(ptr noundef nonnull align 4 dereferenceable(28) %17, i32 noundef %19)
  %20 = load i32, ptr %12, align 4, !tbaa !8
  call void @_ZN7Imf_3_47KeyCode9setPrefixEi(ptr noundef nonnull align 4 dereferenceable(28) %17, i32 noundef %20)
  %21 = load i32, ptr %13, align 4, !tbaa !8
  call void @_ZN7Imf_3_47KeyCode8setCountEi(ptr noundef nonnull align 4 dereferenceable(28) %17, i32 noundef %21)
  %22 = load i32, ptr %14, align 4, !tbaa !8
  call void @_ZN7Imf_3_47KeyCode13setPerfOffsetEi(ptr noundef nonnull align 4 dereferenceable(28) %17, i32 noundef %22)
  %23 = load i32, ptr %15, align 4, !tbaa !8
  call void @_ZN7Imf_3_47KeyCode16setPerfsPerFrameEi(ptr noundef nonnull align 4 dereferenceable(28) %17, i32 noundef %23)
  %24 = load i32, ptr %16, align 4, !tbaa !8
  call void @_ZN7Imf_3_47KeyCode16setPerfsPerCountEi(ptr noundef nonnull align 4 dereferenceable(28) %17, i32 noundef %24)
  ret void
}