; Function Attrs: mustprogress uwtable
define void @_ZN7Imf_3_47KeyCodeC2Eiiiiiii(ptr noundef nonnull writeonly align 4 captures(none) dereferenceable(28) %0, i32 noundef %1, i32 noundef %2, i32 noundef %3, i32 noundef %4, i32 noundef %5, i32 noundef %6, i32 noundef %7) unnamed_addr #0 align 2 personality ptr @__gxx_personality_v0 {
  %or.cond.i = icmp ugt i32 %1, 99
  br i1 %or.cond.i, label %9, label %_ZN7Imf_3_47KeyCode14setFilmMfcCodeEi.exit

9:                                                ; preds = %8
  %10 = tail call ptr @__cxa_allocate_exception(i64 72) #6
  invoke void @_ZN7Iex_3_46ArgExcC1EPKc(ptr noundef nonnull align 8 dereferenceable(72) %10, ptr noundef nonnull @.str)
          to label %11 unwind label %12

11:                                               ; preds = %9
  tail call void @__cxa_throw(ptr nonnull %10, ptr nonnull @_ZTIN7Iex_3_46ArgExcE, ptr nonnull @_ZN7Iex_3_46ArgExcD1Ev) #7
  unreachable

common.resume:                                    ; preds = %49, %42, %35, %29, %23, %17, %12
  %.sink = phi ptr [ %47, %49 ], [ %40, %42 ], [ %33, %35 ], [ %27, %29 ], [ %21, %23 ], [ %15, %17 ], [ %10, %12 ]
  %common.resume.op = phi { ptr, i32 } [ %50, %49 ], [ %43, %42 ], [ %36, %35 ], [ %30, %29 ], [ %24, %23 ], [ %18, %17 ], [ %13, %12 ]
  tail call void @__cxa_free_exception(ptr nonnull %.sink) #6
  resume { ptr, i32 } %common.resume.op

12:                                               ; preds = %9
  %13 = landingpad { ptr, i32 }
          cleanup
  br label %common.resume

_ZN7Imf_3_47KeyCode14setFilmMfcCodeEi.exit:       ; preds = %8
  store i32 %1, ptr %0, align 4, !tbaa !3
  %or.cond.i7 = icmp ugt i32 %2, 99
  br i1 %or.cond.i7, label %14, label %_ZN7Imf_3_47KeyCode11setFilmTypeEi.exit

14:                                               ; preds = %_ZN7Imf_3_47KeyCode14setFilmMfcCodeEi.exit
  %15 = tail call ptr @__cxa_allocate_exception(i64 72) #6
  invoke void @_ZN7Iex_3_46ArgExcC1EPKc(ptr noundef nonnull align 8 dereferenceable(72) %15, ptr noundef nonnull @.str.1)
          to label %16 unwind label %17

16:                                               ; preds = %14
  tail call void @__cxa_throw(ptr nonnull %15, ptr nonnull @_ZTIN7Iex_3_46ArgExcE, ptr nonnull @_ZN7Iex_3_46ArgExcD1Ev) #7
  unreachable

17:                                               ; preds = %14
  %18 = landingpad { ptr, i32 }
          cleanup
  br label %common.resume

_ZN7Imf_3_47KeyCode11setFilmTypeEi.exit:          ; preds = %_ZN7Imf_3_47KeyCode14setFilmMfcCodeEi.exit
  %19 = getelementptr inbounds nuw i8, ptr %0, i64 4
  store i32 %2, ptr %19, align 4, !tbaa !8
  %or.cond.i8 = icmp ugt i32 %3, 999999
  br i1 %or.cond.i8, label %20, label %_ZN7Imf_3_47KeyCode9setPrefixEi.exit

20:                                               ; preds = %_ZN7Imf_3_47KeyCode11setFilmTypeEi.exit
  %21 = tail call ptr @__cxa_allocate_exception(i64 72) #6
  invoke void @_ZN7Iex_3_46ArgExcC1EPKc(ptr noundef nonnull align 8 dereferenceable(72) %21, ptr noundef nonnull @.str.2)
          to label %22 unwind label %23

22:                                               ; preds = %20
  tail call void @__cxa_throw(ptr nonnull %21, ptr nonnull @_ZTIN7Iex_3_46ArgExcE, ptr nonnull @_ZN7Iex_3_46ArgExcD1Ev) #7
  unreachable

23:                                               ; preds = %20
  %24 = landingpad { ptr, i32 }
          cleanup
  br label %common.resume

_ZN7Imf_3_47KeyCode9setPrefixEi.exit:             ; preds = %_ZN7Imf_3_47KeyCode11setFilmTypeEi.exit
  %25 = getelementptr inbounds nuw i8, ptr %0, i64 8
  store i32 %3, ptr %25, align 4, !tbaa !9
  %or.cond.i9 = icmp ugt i32 %4, 9999
  br i1 %or.cond.i9, label %26, label %_ZN7Imf_3_47KeyCode8setCountEi.exit

26:                                               ; preds = %_ZN7Imf_3_47KeyCode9setPrefixEi.exit
  %27 = tail call ptr @__cxa_allocate_exception(i64 72) #6
  invoke void @_ZN7Iex_3_46ArgExcC1EPKc(ptr noundef nonnull align 8 dereferenceable(72) %27, ptr noundef nonnull @.str.3)
          to label %28 unwind label %29

28:                                               ; preds = %26
  tail call void @__cxa_throw(ptr nonnull %27, ptr nonnull @_ZTIN7Iex_3_46ArgExcE, ptr nonnull @_ZN7Iex_3_46ArgExcD1Ev) #7
  unreachable

29:                                               ; preds = %26
  %30 = landingpad { ptr, i32 }
          cleanup
  br label %common.resume

_ZN7Imf_3_47KeyCode8setCountEi.exit:              ; preds = %_ZN7Imf_3_47KeyCode9setPrefixEi.exit
  %31 = getelementptr inbounds nuw i8, ptr %0, i64 12
  store i32 %4, ptr %31, align 4, !tbaa !10
  %or.cond.i10 = icmp ugt i32 %5, 119
  br i1 %or.cond.i10, label %32, label %_ZN7Imf_3_47KeyCode13setPerfOffsetEi.exit

32:                                               ; preds = %_ZN7Imf_3_47KeyCode8setCountEi.exit
  %33 = tail call ptr @__cxa_allocate_exception(i64 72) #6
  invoke void @_ZN7Iex_3_46ArgExcC1EPKc(ptr noundef nonnull align 8 dereferenceable(72) %33, ptr noundef nonnull @.str.4)
          to label %34 unwind label %35

34:                                               ; preds = %32
  tail call void @__cxa_throw(ptr nonnull %33, ptr nonnull @_ZTIN7Iex_3_46ArgExcE, ptr nonnull @_ZN7Iex_3_46ArgExcD1Ev) #7
  unreachable

35:                                               ; preds = %32
  %36 = landingpad { ptr, i32 }
          cleanup
  br label %common.resume

_ZN7Imf_3_47KeyCode13setPerfOffsetEi.exit:        ; preds = %_ZN7Imf_3_47KeyCode8setCountEi.exit
  %37 = getelementptr inbounds nuw i8, ptr %0, i64 16
  store i32 %5, ptr %37, align 4, !tbaa !11
  %38 = add i32 %6, -16
  %or.cond.i11 = icmp ult i32 %38, -15
  br i1 %or.cond.i11, label %39, label %_ZN7Imf_3_47KeyCode16setPerfsPerFrameEi.exit

39:                                               ; preds = %_ZN7Imf_3_47KeyCode13setPerfOffsetEi.exit
  %40 = tail call ptr @__cxa_allocate_exception(i64 72) #6
  invoke void @_ZN7Iex_3_46ArgExcC1EPKc(ptr noundef nonnull align 8 dereferenceable(72) %40, ptr noundef nonnull @.str.5)
          to label %41 unwind label %42

41:                                               ; preds = %39
  tail call void @__cxa_throw(ptr nonnull %40, ptr nonnull @_ZTIN7Iex_3_46ArgExcE, ptr nonnull @_ZN7Iex_3_46ArgExcD1Ev) #7
  unreachable

42:                                               ; preds = %39
  %43 = landingpad { ptr, i32 }
          cleanup
  br label %common.resume

_ZN7Imf_3_47KeyCode16setPerfsPerFrameEi.exit:     ; preds = %_ZN7Imf_3_47KeyCode13setPerfOffsetEi.exit
  %44 = getelementptr inbounds nuw i8, ptr %0, i64 20
  store i32 %6, ptr %44, align 4, !tbaa !12
  %45 = add i32 %7, -121
  %or.cond.i12 = icmp ult i32 %45, -101
  br i1 %or.cond.i12, label %46, label %_ZN7Imf_3_47KeyCode16setPerfsPerCountEi.exit

46:                                               ; preds = %_ZN7Imf_3_47KeyCode16setPerfsPerFrameEi.exit
  %47 = tail call ptr @__cxa_allocate_exception(i64 72) #6
  invoke void @_ZN7Iex_3_46ArgExcC1EPKc(ptr noundef nonnull align 8 dereferenceable(72) %47, ptr noundef nonnull @.str.6)
          to label %48 unwind label %49

48:                                               ; preds = %46
  tail call void @__cxa_throw(ptr nonnull %47, ptr nonnull @_ZTIN7Iex_3_46ArgExcE, ptr nonnull @_ZN7Iex_3_46ArgExcD1Ev) #7
  unreachable

49:                                               ; preds = %46
  %50 = landingpad { ptr, i32 }
          cleanup
  br label %common.resume

_ZN7Imf_3_47KeyCode16setPerfsPerCountEi.exit:     ; preds = %_ZN7Imf_3_47KeyCode16setPerfsPerFrameEi.exit
  %51 = getelementptr inbounds nuw i8, ptr %0, i64 24
  store i32 %7, ptr %51, align 4, !tbaa !13
  ret void
}